; Function Attrs: nounwind uwtable
define hidden void @Curl_cf_http_proxy_get_host(ptr noundef readonly captures(none) %0, ptr noundef %1, ptr noundef %2, ptr noundef %3, ptr noundef %4) #2 {
  %6 = getelementptr inbounds nuw i8, ptr %0, i64 36
  %7 = load i8, ptr %6, align 4
  %8 = and i8 %7, 1
  %.not = icmp eq i8 %8, 0
  br i1 %.not, label %9, label %18

9:                                                ; preds = %5
  %10 = getelementptr inbounds nuw i8, ptr %0, i64 24
  %11 = load ptr, ptr %10, align 8, !tbaa !3
  %12 = getelementptr inbounds nuw i8, ptr %11, i64 240
  %13 = load ptr, ptr %12, align 8, !tbaa !120
  store ptr %13, ptr %2, align 8, !tbaa !35
  %14 = getelementptr inbounds nuw i8, ptr %11, i64 248
  %15 = load ptr, ptr %14, align 8, !tbaa !121
  store ptr %15, ptr %3, align 8, !tbaa !35
  %16 = getelementptr inbounds nuw i8, ptr %11, i64 256
  %17 = load i32, ptr %16, align 8, !tbaa !122
  store i32 %17, ptr %4, align 4, !tbaa !41
  br label %24

18:                                               ; preds = %5
  %19 = getelementptr inbounds nuw i8, ptr %0, i64 8
  %20 = load ptr, ptr %19, align 8, !tbaa !123
  %21 = load ptr, ptr %20, align 8, !tbaa !124
  %22 = getelementptr inbounds nuw i8, ptr %21, i64 48
  %23 = load ptr, ptr %22, align 8, !tbaa !125
  tail call void %23(ptr noundef nonnull %20, ptr noundef %1, ptr noundef %2, ptr noundef %3, ptr noundef %4) #6
  br label %24

24:                                               ; preds = %18, %9
  ret void
}